; Function Attrs: mustprogress uwtable
define void @_ZN5Ipopt13StreamJournal9PrintImplENS_16EJournalCategoryENS_13EJournalLevelEPKc(ptr nocapture noundef nonnull readonly align 8 dereferenceable(32952) %0, i32 %1, i32 %2, ptr noundef %3) unnamed_addr #3 align 2 {
  %5 = getelementptr inbounds i8, ptr %0, i64 176
  %6 = load ptr, ptr %5, align 8
  %.not = icmp eq ptr %6, null
  br i1 %.not, label %9, label %7

7:                                                ; preds = %4
  %8 = tail call noundef nonnull align 8 dereferenceable(8) ptr @_ZStlsISt11char_traitsIcEERSt13basic_ostreamIcT_ES5_PKc(ptr noundef nonnull align 8 dereferenceable(8) %6, ptr noundef %3)
  br label %9

9:                                                ; preds = %7, %4
  ret void
}